target datalayout = "e-m:e-p270:32:32-p271:32:32-p272:64:64-i64:64-i128:128-f80:128-n8:16:32:64-S128"
target triple = "x86_64-pc-linux-gnu"

%"class.vcg::Matrix44" = type { %"struct.std::array" }
%"struct.std::array" = type { [16 x float] }
%class.EditManipulatorsPlugin = type { %class.QObject, %class.EditTool, %class.QFont, %"class.vcg::Matrix44", %"class.vcg::Matrix44", i32, i32, i8, i8, float, %class.QString, i8, float, i8, %"class.vcg::Point2", %"class.vcg::Point2", float, float, float, float, float, float, float, float, float, float, %"class.vcg::Point3", %"class.vcg::Point3", %"class.vcg::Point3" }
%class.QObject = type { ptr, %class.QScopedPointer }
%class.QScopedPointer = type { ptr }
%class.EditTool = type { %class.MeshLabPluginLogger }
%class.MeshLabPluginLogger = type { ptr, ptr }
%class.QFont = type <{ %class.QExplicitlySharedDataPointer, i32, [4 x i8] }>
%class.QExplicitlySharedDataPointer = type { ptr }
%class.QString = type { ptr }
%"class.vcg::Point2" = type { [2 x i32] }
%"class.vcg::Point3" = type { [3 x float] }
%class.QMouseEvent = type <{ %class.QInputEvent, %class.QPointF, %class.QPointF, %class.QPointF, i32, %class.QFlags.145, i32, %class.QVector2D, [4 x i8] }>
%class.QInputEvent = type { %class.QEvent.base, %class.QFlags, i64 }
%class.QEvent.base = type <{ ptr, ptr, i16, i16 }>
%class.QFlags = type { i32 }
%class.QPointF = type { double, double }
%class.QFlags.145 = type { i32 }
%class.QVector2D = type { [2 x float] }

; Function Attrs: mustprogress nounwind uwtable
define linkonce_odr noundef double @_ZNK7QPointF1yEv(ptr noundef nonnull align 8 dereferenceable(16) %0) #4 comdat align 2 {
  %2 = alloca ptr, align 8
  store ptr %0, ptr %2, align 8
  %3 = load ptr, ptr %2, align 8
  %4 = getelementptr inbounds %class.QPointF, ptr %3, i32 0, i32 1
  %5 = load double, ptr %4, align 8
  ret double %5
}

; Function Attrs: mustprogress nounwind uwtable
define linkonce_odr noundef i32 @_Z6qRoundd(double noundef %0) #4 comdat {
  %2 = alloca double, align 8
  store double %0, ptr %2, align 8
  %3 = load double, ptr %2, align 8
  %4 = fcmp oge double %3, 0.000000e+00
  br i1 %4, label %5, label %9

5:                                                ; preds = %1
  %6 = load double, ptr %2, align 8
  %7 = fadd double %6, 5.000000e-01
  %8 = fptosi double %7 to i32
  br label %22

9:                                                ; preds = %1
  %10 = load double, ptr %2, align 8
  %11 = load double, ptr %2, align 8
  %12 = fsub double %11, 1.000000e+00
  %13 = fptosi double %12 to i32
  %14 = sitofp i32 %13 to double
  %15 = fsub double %10, %14
  %16 = fadd double %15, 5.000000e-01
  %17 = fptosi double %16 to i32
  %18 = load double, ptr %2, align 8
  %19 = fsub double %18, 1.000000e+00
  %20 = fptosi double %19 to i32
  %21 = add nsw i32 %17, %20
  br label %22

22:                                               ; preds = %9, %5
  %23 = phi i32 [ %8, %5 ], [ %21, %9 ]
  ret i32 %23
}

; Function Attrs: mustprogress nounwind uwtable
define linkonce_odr noundef double @_ZNK7QPointF1xEv(ptr noundef nonnull align 8 dereferenceable(16) %0) #4 comdat align 2 {
  %2 = alloca ptr, align 8
  store ptr %0, ptr %2, align 8
  %3 = load ptr, ptr %2, align 8
  %4 = getelementptr inbounds %class.QPointF, ptr %3, i32 0, i32 0
  %5 = load double, ptr %4, align 8
  ret double %5
}

; Function Attrs: mustprogress nounwind uwtable
define linkonce_odr noundef nonnull align 4 dereferenceable(4) ptr @_ZN3vcg6Point2IiEixEi(ptr noundef nonnull align 4 dereferenceable(8) %0, i32 noundef %1) #4 comdat align 2 {
  %3 = alloca ptr, align 8
  %4 = alloca i32, align 4
  store ptr %0, ptr %3, align 8
  store i32 %1, ptr %4, align 4
  %5 = load ptr, ptr %3, align 8
  %6 = getelementptr inbounds %"class.vcg::Point2", ptr %5, i32 0, i32 0
  %7 = load i32, ptr %4, align 4
  %8 = sext i32 %7 to i64
  %9 = getelementptr inbounds [2 x i32], ptr %6, i64 0, i64 %8
  ret ptr %9
}

; Function Attrs: mustprogress nounwind uwtable
define linkonce_odr void @_ZN3vcg6Point2IiEC2Eii(ptr noundef nonnull align 4 dereferenceable(8) %0, i32 noundef %1, i32 noundef %2) unnamed_addr #4 comdat align 2 {
  %4 = alloca ptr, align 8
  %5 = alloca i32, align 4
  %6 = alloca i32, align 4
  store ptr %0, ptr %4, align 8
  store i32 %1, ptr %5, align 4
  store i32 %2, ptr %6, align 4
  %7 = load ptr, ptr %4, align 8
  %8 = load i32, ptr %5, align 4
  %9 = getelementptr inbounds %"class.vcg::Point2", ptr %7, i32 0, i32 0
  %10 = getelementptr inbounds [2 x i32], ptr %9, i64 0, i64 0
  store i32 %8, ptr %10, align 4
  %11 = load i32, ptr %6, align 4
  %12 = getelementptr inbounds %"class.vcg::Point2", ptr %7, i32 0, i32 0
  %13 = getelementptr inbounds [2 x i32], ptr %12, i64 0, i64 1
  store i32 %11, ptr %13, align 4
  ret void
}

; Function Attrs: mustprogress uwtable
define linkonce_odr noundef i32 @_ZNK11QMouseEvent1yEv(ptr noundef nonnull align 8 dereferenceable(100) %0) #5 comdat align 2 {
  %2 = alloca ptr, align 8
  store ptr %0, ptr %2, align 8
  %3 = load ptr, ptr %2, align 8
  %4 = getelementptr inbounds %class.QMouseEvent, ptr %3, i32 0, i32 1
  %5 = call noundef double @_ZNK7QPointF1yEv(ptr noundef nonnull align 8 dereferenceable(16) %4)
  %6 = call noundef i32 @_Z6qRoundd(double noundef %5)
  ret i32 %6
}

; Function Attrs: mustprogress uwtable
define linkonce_odr noundef i32 @_ZNK11QMouseEvent1xEv(ptr noundef nonnull align 8 dereferenceable(100) %0) #5 comdat align 2 {
  %2 = alloca ptr, align 8
  store ptr %0, ptr %2, align 8
  %3 = load ptr, ptr %2, align 8
  %4 = getelementptr inbounds %class.QMouseEvent, ptr %3, i32 0, i32 1
  %5 = call noundef double @_ZNK7QPointF1xEv(ptr noundef nonnull align 8 dereferenceable(16) %4)
  %6 = call noundef i32 @_Z6qRoundd(double noundef %5)
  ret i32 %6
}

; Function Attrs: mustprogress uwtable
define void @_ZN22EditManipulatorsPlugin17mouseReleaseEventEP11QMouseEventR9MeshModelP6GLArea(ptr noundef nonnull align 8 dereferenceable(304) %0, ptr noundef %1, ptr noundef nonnull align 8 dereferenceable(1288) %2, ptr noundef %3) unnamed_addr #5 align 2 {
  %5 = alloca ptr, align 8
  %6 = alloca ptr, align 8
  %7 = alloca ptr, align 8
  %8 = alloca ptr, align 8
  %9 = alloca %"class.vcg::Point2", align 4
  store ptr %0, ptr %5, align 8
  store ptr %1, ptr %6, align 8
  store ptr %2, ptr %7, align 8
  store ptr %3, ptr %8, align 8
  %10 = load ptr, ptr %5, align 8
  %11 = getelementptr inbounds %class.EditManipulatorsPlugin, ptr %10, i32 0, i32 13
  %12 = load i8, ptr %11, align 8
  %13 = trunc i8 %12 to i1
  br i1 %13, label %14, label %41

14:                                               ; preds = %4
  %15 = getelementptr inbounds %class.EditManipulatorsPlugin, ptr %10, i32 0, i32 13
  store i8 0, ptr %15, align 8
  %16 = load ptr, ptr %6, align 8
  %17 = call noundef i32 @_ZNK11QMouseEvent1xEv(ptr noundef nonnull align 8 dereferenceable(100) %16)
  %18 = load ptr, ptr %6, align 8
  %19 = call noundef i32 @_ZNK11QMouseEvent1yEv(ptr noundef nonnull align 8 dereferenceable(100) %18)
  call void @_ZN3vcg6Point2IiEC2Eii(ptr noundef nonnull align 4 dereferenceable(8) %9, i32 noundef %17, i32 noundef %19)
  %20 = getelementptr inbounds %class.EditManipulatorsPlugin, ptr %10, i32 0, i32 15
  call void @llvm.memcpy.p0.p0.i64(ptr align 4 %20, ptr align 4 %9, i64 8, i1 false)
  %21 = getelementptr inbounds %class.EditManipulatorsPlugin, ptr %10, i32 0, i32 15
  %22 = call noundef nonnull align 4 dereferenceable(4) ptr @_ZN3vcg6Point2IiEixEi(ptr noundef nonnull align 4 dereferenceable(8) %21, i32 noundef 0)
  %23 = load i32, ptr %22, align 4
  %24 = getelementptr inbounds %class.EditManipulatorsPlugin, ptr %10, i32 0, i32 14
  %25 = call noundef nonnull align 4 dereferenceable(4) ptr @_ZN3vcg6Point2IiEixEi(ptr noundef nonnull align 4 dereferenceable(8) %24, i32 noundef 0)
  %26 = load i32, ptr %25, align 4
  %27 = sub nsw i32 %23, %26
  %28 = sitofp i32 %27 to float
  %29 = getelementptr inbounds %class.EditManipulatorsPlugin, ptr %10, i32 0, i32 16
  store float %28, ptr %29, align 4
  %30 = getelementptr inbounds %class.EditManipulatorsPlugin, ptr %10, i32 0, i32 15
  %31 = call noundef nonnull align 4 dereferenceable(4) ptr @_ZN3vcg6Point2IiEixEi(ptr noundef nonnull align 4 dereferenceable(8) %30, i32 noundef 1)
  %32 = load i32, ptr %31, align 4
  %33 = getelementptr inbounds %class.EditManipulatorsPlugin, ptr %10, i32 0, i32 14
  %34 = call noundef nonnull align 4 dereferenceable(4) ptr @_ZN3vcg6Point2IiEixEi(ptr noundef nonnull align 4 dereferenceable(8) %33, i32 noundef 1)
  %35 = load i32, ptr %34, align 4
  %36 = sub nsw i32 %32, %35
  %37 = sitofp i32 %36 to float
  %38 = getelementptr inbounds %class.EditManipulatorsPlugin, ptr %10, i32 0, i32 17
  store float %37, ptr %38, align 8
  %39 = load ptr, ptr %7, align 8
  %40 = load ptr, ptr %8, align 8
  call void @_ZN22EditManipulatorsPlugin12UpdateMatrixER9MeshModelP6GLAreabb(ptr noundef nonnull align 8 dereferenceable(304) %10, ptr noundef nonnull align 8 dereferenceable(1288) %39, ptr noundef %40, i1 noundef zeroext true, i1 noundef zeroext false)
  br label %41

41:                                               ; preds = %14, %4
  %42 = load ptr, ptr %8, align 8
  call void @_ZN7QWidget6updateEv(ptr noundef nonnull align 8 dereferenceable(48) %42)
  ret void
}