; Function Attrs: mustprogress uwtable
define void @_ZN22EditManipulatorsPlugin17mouseReleaseEventEP11QMouseEventR9MeshModelP6GLArea(ptr noundef nonnull align 8 dereferenceable(304) %0, ptr nocapture noundef readonly %1, ptr nocapture noundef nonnull align 8 dereferenceable(1288) %2, ptr noundef %3) unnamed_addr #9 align 2 {
  %5 = getelementptr inbounds i8, ptr %0, i64 208
  %6 = load i8, ptr %5, align 8
  %7 = and i8 %6, 1
  %.not = icmp eq i8 %7, 0
  br i1 %.not, label %47, label %8

8:                                                ; preds = %4
  store i8 0, ptr %5, align 8
  %9 = getelementptr inbounds i8, ptr %1, i64 32
  %10 = load double, ptr %9, align 8
  %11 = fcmp ult double %10, 0.000000e+00
  br i1 %11, label %15, label %12

12:                                               ; preds = %8
  %13 = fadd double %10, 5.000000e-01
  %14 = fptosi double %13 to i32
  br label %_ZNK11QMouseEvent1xEv.exit

15:                                               ; preds = %8
  %16 = fadd double %10, -1.000000e+00
  %17 = fptosi double %16 to i32
  %18 = sitofp i32 %17 to double
  %19 = fsub double %10, %18
  %20 = fadd double %19, 5.000000e-01
  %21 = fptosi double %20 to i32
  %22 = add nsw i32 %21, %17
  br label %_ZNK11QMouseEvent1xEv.exit

_ZNK11QMouseEvent1xEv.exit:                       ; preds = %12, %15
  %23 = phi i32 [ %14, %12 ], [ %22, %15 ]
  %24 = getelementptr inbounds i8, ptr %1, i64 40
  %25 = load double, ptr %24, align 8
  %26 = fcmp ult double %25, 0.000000e+00
  br i1 %26, label %30, label %27

27:                                               ; preds = %_ZNK11QMouseEvent1xEv.exit
  %28 = fadd double %25, 5.000000e-01
  %29 = fptosi double %28 to i32
  br label %_ZNK11QMouseEvent1yEv.exit

30:                                               ; preds = %_ZNK11QMouseEvent1xEv.exit
  %31 = fadd double %25, -1.000000e+00
  %32 = fptosi double %31 to i32
  %33 = sitofp i32 %32 to double
  %34 = fsub double %25, %33
  %35 = fadd double %34, 5.000000e-01
  %36 = fptosi double %35 to i32
  %37 = add nsw i32 %36, %32
  br label %_ZNK11QMouseEvent1yEv.exit

_ZNK11QMouseEvent1yEv.exit:                       ; preds = %27, %30
  %38 = phi i32 [ %29, %27 ], [ %37, %30 ]
  %39 = getelementptr inbounds i8, ptr %0, i64 220
  %.sroa.2.0.insert.ext = zext i32 %38 to i64
  %.sroa.2.0.insert.shift = shl nuw i64 %.sroa.2.0.insert.ext, 32
  %.sroa.0.0.insert.ext = zext i32 %23 to i64
  %.sroa.0.0.insert.insert = or disjoint i64 %.sroa.2.0.insert.shift, %.sroa.0.0.insert.ext
  store i64 %.sroa.0.0.insert.insert, ptr %39, align 4
  %40 = getelementptr inbounds i8, ptr %0, i64 212
  %41 = getelementptr inbounds i8, ptr %0, i64 228
  %42 = load <2 x i32>, ptr %40, align 4
  %43 = insertelement <2 x i32> poison, i32 %23, i64 0
  %44 = insertelement <2 x i32> %43, i32 %38, i64 1
  %45 = sub nsw <2 x i32> %44, %42
  %46 = sitofp <2 x i32> %45 to <2 x float>
  store <2 x float> %46, ptr %41, align 4
  tail call void @_ZN22EditManipulatorsPlugin12UpdateMatrixER9MeshModelP6GLAreabb(ptr noundef nonnull align 8 dereferenceable(304) %0, ptr noundef nonnull align 8 dereferenceable(1288) %2, ptr noundef %3, i1 noundef zeroext true, i1 noundef zeroext false)
  br label %47

47:                                               ; preds = %_ZNK11QMouseEvent1yEv.exit, %4
  tail call void @_ZN7QWidget6updateEv(ptr noundef nonnull align 8 dereferenceable(48) %3)
  ret void
}